Certificate:
    Data:
        Version: 3 (0x2)
        Serial Number: 1 (0x1)
        Signature Algorithm: sha256WithRSAEncryption
        Issuer: C=BA, ST=RS, L=Banja Luka, O=ETF, OU=KIRZ, CN=Pavle Vignjevic/emailAddress=pavle.vignjevic@student.etf.unibl.org
        Validity
            Not Before: Aug 31 13:15:09 2019 GMT
            Not After : May 27 13:15:09 2022 GMT
        Subject: C=BA, ST=RS, L=Banja Luka, O=ETF, OU=KIRZ, CN=Pavle Vignjevic/emailAddress=pavle.vignjevic@student.etf.unibl.org
        Subject Public Key Info:
            Public Key Algorithm: rsaEncryption
                RSA Public-Key: (4096 bit)
                Modulus:
                    00:c8:05:30:5c:90:28:73:e8:94:5d:c0:26:89:d6:
                    62:c6:84:0d:b6:e6:43:cf:10:31:8d:ad:47:b2:e9:
                    47:9e:2b:71:ce:78:4f:03:f1:70:3c:97:c6:24:ef:
                    d5:70:4e:70:b3:b0:bc:58:85:e0:15:b8:8b:c2:ce:
                    96:f3:d3:5d:2b:92:c8:4c:ae:5c:3d:88:88:0c:d8:
                    5e:6d:c2:a3:77:d4:62:f7:bf:b9:ab:e6:a9:70:4f:
                    5e:c1:86:2b:64:65:7e:c2:84:c3:3f:c0:64:52:fe:
                    f6:4a:1c:e7:dd:cf:aa:34:17:c6:24:0f:f5:0b:10:
                    95:96:01:60:83:02:46:0d:82:b9:ef:ea:6f:61:4b:
                    f6:19:a8:03:cb:4f:57:32:71:51:2a:fc:1d:25:fb:
                    06:fd:d6:d8:06:92:a9:ef:30:8f:77:16:9a:71:a7:
                    8e:7b:60:70:1c:24:da:c4:76:d9:1e:1c:d8:ec:a6:
                    56:ff:72:20:80:51:34:ee:e0:3c:32:bd:79:6b:de:
                    70:e7:9c:23:75:18:c6:0a:3a:5f:9f:3f:d5:90:67:
                    c3:bb:e4:9a:a8:1b:d9:cc:26:2c:54:39:27:2b:7b:
                    90:4d:41:a2:6d:41:e2:78:7b:b0:d4:6d:3d:bf:72:
                    05:42:3f:23:63:fa:10:6a:e3:be:6d:63:05:53:ab:
                    18:f5:46:bf:b2:78:dd:ad:ab:10:ba:27:d4:02:0e:
                    35:1b:17:af:b1:db:44:af:a4:3f:21:e7:48:12:b1:
                    30:6f:0a:9b:1a:74:da:df:5c:c7:df:e9:b1:40:66:
                    1c:91:09:0f:c4:76:6d:f7:e0:14:1f:a7:b2:6a:36:
                    4e:f1:42:1a:e5:b1:e0:fb:97:8f:29:40:4c:5d:28:
                    1c:22:bf:c0:e6:26:17:0c:d6:be:30:8c:64:d9:77:
                    c0:b3:18:c2:76:57:ef:c6:be:a7:3f:69:1a:13:3f:
                    8c:d5:6e:56:6c:e9:8b:cb:48:7b:5e:a0:a4:ce:90:
                    53:66:a5:b4:51:c0:41:c5:21:c5:87:c6:b2:3c:21:
                    ea:4e:87:5b:45:fc:a5:60:1c:1d:ce:ab:1c:67:a9:
                    28:5e:63:06:41:f6:38:de:28:e8:23:1a:00:67:29:
                    2a:da:2f:9c:dc:1b:0c:5e:db:c6:62:a5:44:48:35:
                    af:69:6e:e1:d4:3e:d6:46:d6:b1:c7:92:fd:aa:40:
                    30:b5:09:9d:ce:b2:14:78:a6:26:15:af:5b:fa:bb:
                    a5:21:b3:c0:34:8b:0f:7a:6f:d8:4c:fe:b3:b3:51:
                    f7:62:ae:b3:05:5b:0b:07:0e:53:05:76:4b:b1:b5:
                    b2:60:cd:da:94:73:7c:e9:e3:b1:1b:1e:2b:17:0e:
                    41:33:2b
                Exponent: 65537 (0x10001)
        X509v3 extensions:
            X509v3 Basic Constraints: 
                CA:FALSE
            X509v3 Key Usage: 
                Digital Signature, Non Repudiation, Key Encipherment, Data Encipherment, Key Agreement
            X509v3 Extended Key Usage: 
                TLS Web Client Authentication
            Netscape Comment: 
                OpenSSL Generated Certificate
            X509v3 Subject Key Identifier: 
                25:88:B2:1B:1F:32:8C:F4:90:97:F3:23:B8:97:2F:B3:00:52:E9:AB
            X509v3 Authority Key Identifier: 
                keyid:25:88:B2:1B:1F:32:8C:F4:90:97:F3:23:B8:97:2F:B3:00:52:E9:AB

            X509v3 CRL Distribution Points: 

                Full Name:
                  URI:http://192.168.21.89/rootcrl.pem

    Signature Algorithm: sha256WithRSAEncryption
         12:0a:58:6f:1e:d7:55:7a:47:cf:34:45:6f:4a:44:72:39:38:
         3f:0e:d4:26:3e:4e:ff:5c:75:2e:52:51:fb:a6:f3:c8:bf:bf:
         a8:a5:30:e5:70:1d:4c:5f:0f:5e:29:95:8e:0c:11:00:30:b9:
         ea:3f:ec:45:d1:df:22:0d:12:79:8f:3b:27:87:2d:7f:51:3a:
         67:99:40:18:f0:76:4b:b7:c9:f9:26:68:14:fa:91:1f:f1:0f:
         f6:ef:9c:8c:07:69:90:1d:7e:f4:fd:f1:76:32:cc:07:90:fe:
         c9:1f:f3:e7:16:5b:62:fb:53:e5:06:24:b0:3b:5a:ab:f7:c6:
         cc:c0:98:b4:ee:02:f9:d3:91:47:f1:dc:07:69:43:71:4d:13:
         6e:4c:f4:1a:9e:31:41:b7:7d:14:ad:1a:15:98:a2:7b:f7:35:
         a0:df:f1:5f:8a:03:58:01:86:f9:15:4e:2c:75:a5:ab:ef:0d:
         ab:fd:ac:7d:51:6e:4d:f6:5d:10:ab:47:ca:ba:9e:09:a3:f5:
         aa:33:5f:59:48:98:73:73:9a:5c:27:84:2f:3f:12:16:56:a4:
         47:5e:ff:fc:d7:d3:e3:0e:85:9f:bf:6e:ca:a3:40:25:31:b3:
         86:48:e8:dd:09:e2:4b:f5:4e:68:82:b3:b7:61:18:f1:f2:40:
         98:5c:e4:f8:43:bf:6c:1f:2e:bf:6d:51:5b:79:15:fa:33:c5:
         98:ec:99:f0:0a:57:cb:4a:e7:f4:cd:1d:6a:34:73:b6:16:1e:
         bc:a9:cb:6f:bb:3b:15:ec:8c:04:4e:57:25:cd:23:3f:37:49:
         1e:2d:13:30:bf:52:5c:bb:83:cf:3c:d6:ba:c5:03:aa:ec:74:
         c6:0e:42:a7:4c:5b:f3:62:59:3f:aa:3e:04:75:aa:64:8a:80:
         bf:1a:4b:ac:ca:3c:76:8f:73:7d:4a:00:7e:88:9e:d8:66:34:
         57:2e:ff:81:1a:8f:d2:2c:aa:8f:ad:82:1b:83:62:45:2d:0b:
         3e:d3:00:71:b9:42:2f:94:97:0f:37:ae:99:33:13:af:cf:5f:
         0e:37:e5:99:fb:99:d5:fb:c6:fb:86:c5:38:f5:72:f8:9f:0e:
         f7:bd:b7:9e:71:7e:40:35:2e:f4:36:aa:be:ba:ee:dc:73:a3:
         58:10:b8:88:eb:34:39:1c:90:3e:77:9c:9c:d7:68:b8:cb:d3:
         3f:74:da:81:11:42:3b:32:aa:79:69:55:c1:5a:17:7b:5d:d2:
         5e:7d:4b:fa:8c:9b:30:9d:97:3e:2a:83:07:50:63:45:e9:4e:
         a1:53:f0:dd:56:5e:06:55:dc:21:9b:ed:76:38:c8:3f:01:fa:
         9b:dc:60:bd:a2:f2:56:ce
-----BEGIN CERTIFICATE-----
MIIGhzCCBG+gAwIBAgIBATANBgkqhkiG9w0BAQsFADCBnDELMAkGA1UEBhMCQkEx
CzAJBgNVBAgTAlJTMRMwEQYDVQQHEwpCYW5qYSBMdWthMQwwCgYDVQQKEwNFVEYx
DTALBgNVBAsTBEtJUloxGDAWBgNVBAMTD1BhdmxlIFZpZ25qZXZpYzE0MDIGCSqG
SIb3DQEJARYlcGF2bGUudmlnbmpldmljQHN0dWRlbnQuZXRmLnVuaWJsLm9yZzAe
Fw0xOTA4MzExMzE1MDlaFw0yMjA1MjcxMzE1MDlaMIGcMQswCQYDVQQGEwJCQTEL
MAkGA1UECBMCUlMxEzARBgNVBAcTCkJhbmphIEx1a2ExDDAKBgNVBAoTA0VURjEN
MAsGA1UECxMES0lSWjEYMBYGA1UEAxMPUGF2bGUgVmlnbmpldmljMTQwMgYJKoZI
hvcNAQkBFiVwYXZsZS52aWduamV2aWNAc3R1ZGVudC5ldGYudW5pYmwub3JnMIIC
IjANBgkqhkiG9w0BAQEFAAOCAg8AMIICCgKCAgEAyAUwXJAoc+iUXcAmidZixoQN
tuZDzxAxja1HsulHnitxznhPA/FwPJfGJO/VcE5ws7C8WIXgFbiLws6W89NdK5LI
TK5cPYiIDNhebcKjd9Ri97+5q+apcE9ewYYrZGV+woTDP8BkUv72Shzn3c+qNBfG
JA/1CxCVlgFggwJGDYK57+pvYUv2GagDy09XMnFRKvwdJfsG/dbYBpKp7zCPdxaa
caeOe2BwHCTaxHbZHhzY7KZW/3IggFE07uA8Mr15a95w55wjdRjGCjpfnz/VkGfD
u+SaqBvZzCYsVDknK3uQTUGibUHieHuw1G09v3IFQj8jY/oQauO+bWMFU6sY9Ua/
snjdrasQuifUAg41GxevsdtEr6Q/IedIErEwbwqbGnTa31zH3+mxQGYckQkPxHZt
9+AUH6eyajZO8UIa5bHg+5ePKUBMXSgcIr/A5iYXDNa+MIxk2XfAsxjCdlfvxr6n
P2kaEz+M1W5WbOmLy0h7XqCkzpBTZqW0UcBBxSHFh8ayPCHqTodbRfylYBwdzqsc
Z6koXmMGQfY43ijoIxoAZykq2i+c3BsMXtvGYqVESDWvaW7h1D7WRtaxx5L9qkAw
tQmdzrIUeKYmFa9b+rulIbPANIsPem/YTP6zs1H3Yq6zBVsLBw5TBXZLsbWyYM3a
lHN86eOxGx4rFw5BMysCAwEAAaOB0TCBzjAJBgNVHRMEAjAAMAsGA1UdDwQEAwID
+DATBgNVHSUEDDAKBggrBgEFBQcDAjAsBglghkgBhvhCAQ0EHxYdT3BlblNTTCBH
ZW5lcmF0ZWQgQ2VydGlmaWNhdGUwHQYDVR0OBBYEFCWIshsfMoz0kJfzI7iXL7MA
UumrMB8GA1UdIwQYMBaAFCWIshsfMoz0kJfzI7iXL7MAUumrMDEGA1UdHwQqMCgw
JqAkoCKGIGh0dHA6Ly8xOTIuMTY4LjIxLjg5L3Jvb3RjcmwucGVtMA0GCSqGSIb3
DQEBCwUAA4ICAQASClhvHtdVekfPNEVvSkRyOTg/DtQmPk7/XHUuUlH7pvPIv7+o
pTDlcB1MXw9eKZWODBEAMLnqP+xF0d8iDRJ5jzsnhy1/UTpnmUAY8HZLt8n5JmgU
+pEf8Q/275yMB2mQHX70/fF2MswHkP7JH/PnFlti+1PlBiSwO1qr98bMwJi07gL5
05FH8dwHaUNxTRNuTPQanjFBt30UrRoVmKJ79zWg3/FfigNYAYb5FU4sdaWr7w2r
/ax9UW5N9l0Qq0fKup4Jo/WqM19ZSJhzc5pcJ4QvPxIWVqRHXv/819PjDoWfv27K
o0AlMbOGSOjdCeJL9U5ogrO3YRjx8kCYXOT4Q79sHy6/bVFbeRX6M8WY7JnwClfL
Suf0zR1qNHO2Fh68qctvuzsV7IwETlclzSM/N0keLRMwv1Jcu4PPPNa6xQOq7HTG
DkKnTFvzYlk/qj4EdapkioC/Gkusyjx2j3N9SgB+iJ7YZjRXLv+BGo/SLKqPrYIb
g2JFLQs+0wBxuUIvlJcPN66ZMxOvz18ON+WZ+5nV+8b7hsU49XL4nw73vbeecX5A
NS70Nqq+uu7cc6NYELiI6zQ5HJA+d5yc12i4y9M/dNqBEUI7Mqp5aVXBWhd7XdJe
fUv6jJswnZc+KoMHUGNF6U6hU/DdVl4GVdwhm+12OMg/Afqb3GC9ovJWzg==
-----END CERTIFICATE-----
