Certificate:
    Data:
        Version: 3 (0x2)
        Serial Number: 4 (0x4)
        Signature Algorithm: sha256WithRSAEncryption
        Issuer: C=BA, ST=RS, L=Banja Luka, O=ETF, OU=KIRZ, CN=Pavle Vignjevic/emailAddress=pavle.vignjevic@student.etf.unibl.org
        Validity
            Not Before: Aug 31 13:15:52 2019 GMT
            Not After : May 27 13:15:52 2022 GMT
        Subject: C=BA, ST=RS, L=Banja Luka, O=ETF, OU=KIRZ, CN=Korisnik3/emailAddress=korisnik3@kirz.com
        Subject Public Key Info:
            Public Key Algorithm: rsaEncryption
                RSA Public-Key: (4096 bit)
                Modulus:
                    00:a9:7e:ba:45:05:3f:e6:ae:57:1d:f1:ac:c8:35:
                    de:5b:2f:a6:a6:7a:0c:63:13:11:2d:01:2e:17:a2:
                    a5:16:69:c2:6f:d2:66:6b:d0:95:2c:82:13:75:b2:
                    a4:b7:6e:98:82:6b:44:ef:ef:81:8d:7a:3c:42:7b:
                    cb:b5:80:73:2d:64:fd:db:da:78:9d:18:a6:54:a0:
                    9a:60:f1:13:88:85:7c:a9:28:35:82:fa:1e:52:8f:
                    76:c8:80:64:0c:0b:cb:2f:2f:2e:4a:ec:99:80:75:
                    64:d6:c3:a6:8c:65:5e:9a:35:f6:87:34:61:9d:0f:
                    c4:c7:4d:4e:eb:89:d1:d1:12:8b:0e:cf:d1:8d:ad:
                    14:96:42:1a:50:76:4c:30:4e:c7:13:75:e8:99:b2:
                    80:4d:be:51:2a:bb:0e:0b:e5:c7:b4:f0:e0:30:8e:
                    af:38:3a:f9:95:fe:2d:75:18:8e:1e:58:8b:9f:5b:
                    d9:ad:2f:54:dc:ca:7f:ee:9f:9b:46:ad:41:37:ab:
                    3b:d2:7e:99:d1:7a:aa:f7:bc:c9:3f:1b:73:73:a3:
                    9a:53:b0:88:bc:a2:9d:7d:88:7e:a9:16:ac:96:bf:
                    71:65:33:5e:7c:7f:c9:cd:0d:a3:16:14:61:fe:33:
                    84:51:00:9e:ee:b9:f9:fb:f1:5d:09:6d:e8:bb:80:
                    f5:82:b9:be:14:2f:bd:3a:fe:42:8f:22:99:4a:28:
                    f2:6c:f0:29:f0:05:b2:27:81:74:87:d0:37:4f:d9:
                    c3:9e:42:28:f3:a4:b0:f8:dd:6f:b3:e5:22:1c:b1:
                    f3:97:ea:b3:2e:e2:c0:4b:46:27:00:ba:63:66:80:
                    41:df:b9:86:9f:57:19:4d:61:db:17:d5:19:1c:11:
                    f1:3e:7c:40:62:05:f0:c1:3c:6e:ee:f3:4e:68:2e:
                    c1:67:d3:3c:a9:9e:c2:c1:74:62:84:d8:0f:3f:48:
                    3f:d8:e2:c7:de:0c:71:8e:de:77:7d:65:d8:1a:d9:
                    1c:2b:7b:3e:14:80:8e:ac:46:d8:bd:2c:4e:61:6f:
                    41:f1:25:64:90:1c:0f:02:bf:36:bf:db:6e:cf:f2:
                    2c:11:81:2c:1c:85:29:6a:45:33:fc:cd:06:89:03:
                    30:fd:bf:f8:0c:6b:ff:4f:67:94:fa:d7:11:9a:eb:
                    4f:f6:8e:4c:a7:a4:fe:9d:05:f0:7c:4c:89:63:00:
                    ef:5f:32:d8:16:7b:d9:24:ce:10:41:d0:fc:20:21:
                    a7:34:dc:16:1a:64:02:77:c5:ff:bd:ec:e9:fa:fc:
                    01:1f:22:03:c1:81:9b:23:15:73:7d:15:0e:45:17:
                    55:0f:6d:3d:1b:1c:7f:f2:66:b6:fd:6d:63:de:26:
                    cc:e3:b3
                Exponent: 65537 (0x10001)
        X509v3 extensions:
            X509v3 Basic Constraints: 
                CA:FALSE
            X509v3 Key Usage: 
                Digital Signature, Non Repudiation, Key Encipherment, Data Encipherment, Key Agreement
            X509v3 Extended Key Usage: 
                TLS Web Client Authentication
            Netscape Comment: 
                OpenSSL Generated Certificate
            X509v3 Subject Key Identifier: 
                9C:DC:C3:E5:B1:6A:9C:08:1E:B4:2C:65:CE:BE:8C:30:8A:52:81:43
            X509v3 Authority Key Identifier: 
                keyid:25:88:B2:1B:1F:32:8C:F4:90:97:F3:23:B8:97:2F:B3:00:52:E9:AB

            X509v3 CRL Distribution Points: 

                Full Name:
                  URI:http://192.168.21.89/rootcrl.pem

    Signature Algorithm: sha256WithRSAEncryption
         8a:31:b0:34:bb:d5:6c:48:06:91:04:6c:68:91:9d:1d:3b:c8:
         c6:fe:c5:7d:1e:18:58:7a:e5:51:bf:c6:07:46:cc:c7:64:6d:
         5a:ec:37:fe:eb:be:c7:d8:29:00:42:6a:36:89:4b:68:90:84:
         81:d8:72:84:d3:f6:96:63:ac:a8:3a:72:4f:bd:c8:da:08:67:
         d3:36:e9:04:b1:cb:2b:f5:e2:f9:fb:65:fc:d2:9f:3f:3b:20:
         40:24:db:b5:a9:5d:08:d6:8d:ee:97:4e:65:f2:55:55:a6:be:
         d8:97:ad:27:3f:12:9b:db:87:b9:85:e1:4b:e1:93:33:0c:8e:
         48:5a:c1:2f:dc:21:49:b4:60:8e:4d:3f:b9:32:d2:2e:71:d2:
         6c:02:be:8c:68:a5:73:7e:8f:2c:2c:69:f3:28:ce:ae:25:dd:
         7d:6a:07:5a:25:b1:14:19:74:f5:81:36:b0:bc:22:b1:57:a7:
         c8:1b:be:ee:12:ce:b7:de:ad:03:c5:41:d0:01:6d:cf:8e:5f:
         2b:b9:9f:df:4b:9b:26:90:52:98:a3:b4:62:d2:4d:95:d2:56:
         6e:7d:b1:13:ea:c7:da:c9:98:3d:6c:24:67:b1:66:8e:ac:9a:
         55:13:7d:95:26:19:06:02:76:b8:ca:85:0c:22:36:cd:96:b9:
         fb:dc:42:9a:8a:38:bf:bd:be:a1:5c:b4:3e:b6:47:fc:a4:c7:
         42:94:45:f6:b7:8e:71:63:30:87:71:c6:85:64:66:33:19:17:
         21:2f:6a:94:ff:9c:6d:ab:64:47:d5:00:a7:25:6b:29:3f:36:
         81:38:76:7f:1b:30:29:fe:b0:42:e1:bb:aa:9e:ac:81:83:2b:
         b0:88:1a:ae:c9:64:be:6b:e2:92:0b:f7:c8:bf:6a:d2:87:b8:
         6b:67:21:0e:e5:87:91:03:90:09:0f:30:df:bc:8e:ed:ea:81:
         74:ad:8b:ed:ad:11:77:7e:45:03:a9:37:c5:d7:88:66:bf:0b:
         ba:6e:85:e2:24:9a:89:d9:0f:2c:92:ea:65:5e:e8:58:fc:c3:
         e6:93:dc:24:da:9d:2f:4b:23:3d:ce:13:84:98:b1:da:46:48:
         f0:81:52:08:33:ff:f8:55:6e:0c:cd:2b:c9:6b:6d:58:bf:b0:
         6e:1c:12:1f:ec:5c:0e:cd:21:50:43:cc:5b:72:51:de:b6:36:
         fa:0e:3a:f2:16:c6:66:e5:a1:cd:c0:1c:19:9f:4c:1e:64:9b:
         4a:d5:78:c6:7b:e0:06:0b:ef:83:5b:a9:81:38:12:21:e5:fe:
         94:03:8a:ee:62:c2:13:48:fe:59:64:9f:72:54:83:25:40:e4:
         0c:52:25:48:c9:0f:e8:80
-----BEGIN CERTIFICATE-----
MIIGbjCCBFagAwIBAgIBBDANBgkqhkiG9w0BAQsFADCBnDELMAkGA1UEBhMCQkEx
CzAJBgNVBAgTAlJTMRMwEQYDVQQHEwpCYW5qYSBMdWthMQwwCgYDVQQKEwNFVEYx
DTALBgNVBAsTBEtJUloxGDAWBgNVBAMTD1BhdmxlIFZpZ25qZXZpYzE0MDIGCSqG
SIb3DQEJARYlcGF2bGUudmlnbmpldmljQHN0dWRlbnQuZXRmLnVuaWJsLm9yZzAe
Fw0xOTA4MzExMzE1NTJaFw0yMjA1MjcxMzE1NTJaMIGDMQswCQYDVQQGEwJCQTEL
MAkGA1UECBMCUlMxEzARBgNVBAcTCkJhbmphIEx1a2ExDDAKBgNVBAoTA0VURjEN
MAsGA1UECxMES0lSWjESMBAGA1UEAxMJS29yaXNuaWszMSEwHwYJKoZIhvcNAQkB
FhJrb3Jpc25pazNAa2lyei5jb20wggIiMA0GCSqGSIb3DQEBAQUAA4ICDwAwggIK
AoICAQCpfrpFBT/mrlcd8azINd5bL6amegxjExEtAS4XoqUWacJv0mZr0JUsghN1
sqS3bpiCa0Tv74GNejxCe8u1gHMtZP3b2nidGKZUoJpg8ROIhXypKDWC+h5Sj3bI
gGQMC8svLy5K7JmAdWTWw6aMZV6aNfaHNGGdD8THTU7ridHREosOz9GNrRSWQhpQ
dkwwTscTdeiZsoBNvlEquw4L5ce08OAwjq84OvmV/i11GI4eWIufW9mtL1Tcyn/u
n5tGrUE3qzvSfpnReqr3vMk/G3Nzo5pTsIi8op19iH6pFqyWv3FlM158f8nNDaMW
FGH+M4RRAJ7uufn78V0Jbei7gPWCub4UL706/kKPIplKKPJs8CnwBbIngXSH0DdP
2cOeQijzpLD43W+z5SIcsfOX6rMu4sBLRicAumNmgEHfuYafVxlNYdsX1RkcEfE+
fEBiBfDBPG7u805oLsFn0zypnsLBdGKE2A8/SD/Y4sfeDHGO3nd9Zdga2Rwrez4U
gI6sRti9LE5hb0HxJWSQHA8Cvza/227P8iwRgSwchSlqRTP8zQaJAzD9v/gMa/9P
Z5T61xGa60/2jkynpP6dBfB8TIljAO9fMtgWe9kkzhBB0PwgIac03BYaZAJ3xf+9
7On6/AEfIgPBgZsjFXN9FQ5FF1UPbT0bHH/yZrb9bWPeJszjswIDAQABo4HRMIHO
MAkGA1UdEwQCMAAwCwYDVR0PBAQDAgP4MBMGA1UdJQQMMAoGCCsGAQUFBwMCMCwG
CWCGSAGG+EIBDQQfFh1PcGVuU1NMIEdlbmVyYXRlZCBDZXJ0aWZpY2F0ZTAdBgNV
HQ4EFgQUnNzD5bFqnAgetCxlzr6MMIpSgUMwHwYDVR0jBBgwFoAUJYiyGx8yjPSQ
l/MjuJcvswBS6aswMQYDVR0fBCowKDAmoCSgIoYgaHR0cDovLzE5Mi4xNjguMjEu
ODkvcm9vdGNybC5wZW0wDQYJKoZIhvcNAQELBQADggIBAIoxsDS71WxIBpEEbGiR
nR07yMb+xX0eGFh65VG/xgdGzMdkbVrsN/7rvsfYKQBCajaJS2iQhIHYcoTT9pZj
rKg6ck+9yNoIZ9M26QSxyyv14vn7ZfzSnz87IEAk27WpXQjWje6XTmXyVVWmvtiX
rSc/Epvbh7mF4UvhkzMMjkhawS/cIUm0YI5NP7ky0i5x0mwCvoxopXN+jywsafMo
zq4l3X1qB1olsRQZdPWBNrC8IrFXp8gbvu4SzrferQPFQdABbc+OXyu5n99LmyaQ
UpijtGLSTZXSVm59sRPqx9rJmD1sJGexZo6smlUTfZUmGQYCdrjKhQwiNs2Wufvc
QpqKOL+9vqFctD62R/ykx0KURfa3jnFjMIdxxoVkZjMZFyEvapT/nG2rZEfVAKcl
ayk/NoE4dn8bMCn+sELhu6qerIGDK7CIGq7JZL5r4pIL98i/atKHuGtnIQ7lh5ED
kAkPMN+8ju3qgXSti+2tEXd+RQOpN8XXiGa/C7puheIkmonZDyyS6mVe6Fj8w+aT
3CTanS9LIz3OE4SYsdpGSPCBUggz//hVbgzNK8lrbVi/sG4cEh/sXA7NIVBDzFty
Ud62NvoOOvIWxmbloc3AHBmfTB5km0rVeMZ74AYL74NbqYE4EiHl/pQDiu5iwhNI
/llkn3JUgyVA5AxSJUjJD+iA
-----END CERTIFICATE-----
