Certificate:
    Data:
        Version: 3 (0x2)
        Serial Number: 6 (0x6)
        Signature Algorithm: sha256WithRSAEncryption
        Issuer: C=BA, ST=RS, L=Banja Luka, O=ETF, OU=KIRZ, CN=Pavle Vignjevic/emailAddress=pavle.vignjevic@student.etf.unibl.org
        Validity
            Not Before: Aug 31 13:15:55 2019 GMT
            Not After : May 27 13:15:55 2022 GMT
        Subject: C=BA, ST=RS, L=Banja Luka, O=ETF, OU=KIRZ, CN=Korisnik5/emailAddress=korisnik5@kirz.com
        Subject Public Key Info:
            Public Key Algorithm: rsaEncryption
                RSA Public-Key: (4096 bit)
                Modulus:
                    00:f0:0a:59:22:77:80:0b:79:53:a2:72:68:45:f7:
                    f8:2f:c1:35:2e:af:34:ac:73:40:98:5f:55:54:25:
                    64:f6:f2:57:23:c0:03:d6:5b:10:bf:b6:1d:e8:88:
                    c8:d2:a7:64:84:3a:44:5c:23:a4:04:bf:f0:41:14:
                    93:e1:a4:72:cd:b6:f4:fe:91:df:7a:79:d1:4f:e3:
                    a9:2a:60:b7:d8:f9:90:46:bb:20:e0:48:5e:f3:13:
                    f0:48:7b:af:3e:23:6b:3c:7d:a4:72:b3:ae:0e:2d:
                    dc:66:dc:b8:25:a0:99:ff:3e:75:d1:09:45:60:7c:
                    57:74:37:a0:ec:cb:3a:c3:c9:3e:df:6f:9c:b4:d2:
                    c2:95:de:1f:de:f2:6e:59:f0:4f:3d:53:83:2b:44:
                    5a:a5:21:2e:ea:98:56:4b:21:23:11:bf:97:0c:1d:
                    92:5e:a8:f6:aa:7e:b7:88:31:58:98:de:29:6f:41:
                    1c:04:a6:6b:23:c9:d1:ad:73:7d:30:50:c1:f7:95:
                    03:9a:dd:7c:a4:0d:39:72:bb:62:48:b0:66:ef:fb:
                    13:0e:d6:07:ba:9e:3f:3d:24:05:a9:06:f8:2e:57:
                    77:ea:5f:b5:0f:38:01:c2:1e:52:b1:db:18:74:24:
                    55:b6:b1:3d:e3:b0:1c:e4:e8:4b:fc:03:1d:f2:ea:
                    c3:96:fc:4f:df:86:b1:42:31:65:ac:04:de:86:23:
                    4d:85:ce:26:c6:2f:95:c2:4f:3e:2a:86:50:c4:a0:
                    7b:27:b0:4b:ce:d2:2c:b9:32:60:5b:5a:30:35:d4:
                    5a:c8:9a:5d:f7:77:f3:2f:f4:40:bd:aa:fd:8d:73:
                    4a:d8:ee:a8:05:9b:91:14:a8:db:27:69:d3:77:12:
                    d5:7f:6a:a5:d2:af:9a:13:02:78:65:ef:e1:dc:00:
                    0a:18:1b:53:bd:6b:5e:0e:8d:98:d0:81:e1:01:e8:
                    01:2c:17:c0:3d:dc:16:40:54:0d:f3:0e:9f:ef:0c:
                    00:a7:33:02:b0:d0:66:bf:ab:ef:a4:b8:4f:2d:49:
                    c1:f9:fb:38:fe:82:80:5d:cf:05:a2:a4:d6:95:6f:
                    6c:20:27:0c:a7:69:76:0a:fa:84:0e:8f:ea:46:35:
                    c7:00:49:76:50:38:4f:25:0b:93:c0:e8:4c:02:44:
                    e9:b9:6b:1f:7b:3e:b1:0e:44:68:37:8b:58:d5:69:
                    52:a0:e8:bf:16:a3:73:e0:dc:0b:e5:fd:01:c2:97:
                    54:65:32:85:10:2e:32:26:88:31:b3:7b:02:dc:af:
                    83:1f:9d:8f:07:ec:e1:9c:40:47:46:4c:51:ad:68:
                    5d:88:46:12:f5:c6:aa:1d:4b:94:b4:9d:d2:e9:00:
                    ff:2b:43
                Exponent: 65537 (0x10001)
        X509v3 extensions:
            X509v3 Basic Constraints: 
                CA:FALSE
            X509v3 Key Usage: 
                Digital Signature, Non Repudiation, Key Encipherment, Data Encipherment, Key Agreement
            X509v3 Extended Key Usage: 
                TLS Web Client Authentication
            Netscape Comment: 
                OpenSSL Generated Certificate
            X509v3 Subject Key Identifier: 
                73:C4:04:10:80:2C:EC:13:40:CD:C6:97:8F:97:B0:57:CC:7E:FA:35
            X509v3 Authority Key Identifier: 
                keyid:25:88:B2:1B:1F:32:8C:F4:90:97:F3:23:B8:97:2F:B3:00:52:E9:AB

            X509v3 CRL Distribution Points: 

                Full Name:
                  URI:http://192.168.21.89/rootcrl.pem

    Signature Algorithm: sha256WithRSAEncryption
         1c:75:b5:6d:e7:d9:62:29:c3:77:9b:d7:62:87:97:0e:2e:8c:
         38:aa:23:a2:a2:38:b1:07:76:d5:3e:74:22:04:96:8c:fc:c3:
         cd:5a:40:5a:7e:5e:37:5d:8b:a9:d3:a3:41:f6:f9:a0:0e:1d:
         cd:7b:7d:7d:3f:b6:16:57:77:5d:fa:78:33:36:51:ef:6d:c6:
         1d:46:0f:89:5b:3f:5b:e6:e5:7b:8e:75:16:93:c8:c0:9a:91:
         ed:c2:78:ca:e7:e6:0f:77:8f:e3:fc:e5:e9:31:01:5c:e1:54:
         87:24:52:76:67:bd:1d:86:07:61:06:1e:ee:08:73:44:c6:db:
         46:13:7f:fc:9c:4d:fc:19:73:a7:38:b8:85:f8:89:05:25:43:
         d3:b2:42:c3:0f:ab:b3:f1:8c:3d:c5:b2:60:04:27:ea:29:84:
         2c:20:f7:e1:3d:c1:0d:87:c1:e9:0b:12:f0:58:ec:35:2e:62:
         29:23:60:d0:6e:b1:d6:01:b5:11:8a:00:e2:64:c4:6e:72:b9:
         a8:58:75:1f:dc:1c:0a:f2:9b:e7:f4:b3:06:ac:32:ca:0a:bc:
         62:70:dc:fa:e1:7c:d9:9b:f9:33:ee:da:b2:21:99:20:f6:21:
         94:5b:53:e3:c6:2c:76:5b:0c:88:4f:83:cd:63:4e:ca:70:4c:
         a7:dc:53:26:15:d3:4a:2d:5c:ce:d4:13:e9:0a:16:86:f0:6b:
         bc:ff:7e:81:88:82:9e:34:a7:79:e2:bb:c0:0f:86:6e:83:10:
         1b:ae:53:64:09:98:a4:5d:41:ce:f9:f4:da:21:22:d7:fb:59:
         fc:2f:de:41:d3:52:60:a6:a8:69:51:eb:32:35:8b:12:6c:9b:
         32:32:44:a1:36:b8:56:95:64:86:a4:f8:df:bb:39:cb:47:51:
         f7:ac:56:ce:61:1c:7e:fa:10:31:9e:38:f8:dc:2d:c4:65:60:
         06:c7:81:b4:05:c3:62:b7:8a:d4:47:79:b7:3a:99:0b:54:a7:
         78:b0:a0:6b:40:10:96:d1:b4:08:6d:ef:d9:54:5d:2e:86:07:
         e4:91:dd:32:ae:f1:de:a7:30:7e:9a:2f:2d:93:bc:1e:e9:36:
         6e:3d:e5:25:69:fc:06:52:95:05:6e:08:84:85:9b:ba:c9:1d:
         f5:a3:c2:de:cd:c7:b7:07:68:a4:ab:05:87:38:40:a9:8e:b5:
         df:10:58:78:ef:ee:09:97:e3:1f:5f:fa:ce:72:0c:9a:3c:53:
         0f:8d:25:e5:2c:52:c7:f3:84:3b:68:57:e2:ce:ae:a9:29:66:
         71:f5:8c:7a:fa:77:8e:c3:73:55:99:57:bf:74:fd:de:5f:30:
         4d:a3:dc:68:16:1b:c2:9e
-----BEGIN CERTIFICATE-----
MIIGbjCCBFagAwIBAgIBBjANBgkqhkiG9w0BAQsFADCBnDELMAkGA1UEBhMCQkEx
CzAJBgNVBAgTAlJTMRMwEQYDVQQHEwpCYW5qYSBMdWthMQwwCgYDVQQKEwNFVEYx
DTALBgNVBAsTBEtJUloxGDAWBgNVBAMTD1BhdmxlIFZpZ25qZXZpYzE0MDIGCSqG
SIb3DQEJARYlcGF2bGUudmlnbmpldmljQHN0dWRlbnQuZXRmLnVuaWJsLm9yZzAe
Fw0xOTA4MzExMzE1NTVaFw0yMjA1MjcxMzE1NTVaMIGDMQswCQYDVQQGEwJCQTEL
MAkGA1UECBMCUlMxEzARBgNVBAcTCkJhbmphIEx1a2ExDDAKBgNVBAoTA0VURjEN
MAsGA1UECxMES0lSWjESMBAGA1UEAxMJS29yaXNuaWs1MSEwHwYJKoZIhvcNAQkB
FhJrb3Jpc25pazVAa2lyei5jb20wggIiMA0GCSqGSIb3DQEBAQUAA4ICDwAwggIK
AoICAQDwClkid4ALeVOicmhF9/gvwTUurzSsc0CYX1VUJWT28lcjwAPWWxC/th3o
iMjSp2SEOkRcI6QEv/BBFJPhpHLNtvT+kd96edFP46kqYLfY+ZBGuyDgSF7zE/BI
e68+I2s8faRys64OLdxm3LgloJn/PnXRCUVgfFd0N6DsyzrDyT7fb5y00sKV3h/e
8m5Z8E89U4MrRFqlIS7qmFZLISMRv5cMHZJeqPaqfreIMViY3ilvQRwEpmsjydGt
c30wUMH3lQOa3XykDTlyu2JIsGbv+xMO1ge6nj89JAWpBvguV3fqX7UPOAHCHlKx
2xh0JFW2sT3jsBzk6Ev8Ax3y6sOW/E/fhrFCMWWsBN6GI02FzibGL5XCTz4qhlDE
oHsnsEvO0iy5MmBbWjA11FrIml33d/Mv9EC9qv2Nc0rY7qgFm5EUqNsnadN3EtV/
aqXSr5oTAnhl7+HcAAoYG1O9a14OjZjQgeEB6AEsF8A93BZAVA3zDp/vDACnMwKw
0Ga/q++kuE8tScH5+zj+goBdzwWipNaVb2wgJwynaXYK+oQOj+pGNccASXZQOE8l
C5PA6EwCROm5ax97PrEORGg3i1jVaVKg6L8Wo3Pg3Avl/QHCl1RlMoUQLjImiDGz
ewLcr4MfnY8H7OGcQEdGTFGtaF2IRhL1xqodS5S0ndLpAP8rQwIDAQABo4HRMIHO
MAkGA1UdEwQCMAAwCwYDVR0PBAQDAgP4MBMGA1UdJQQMMAoGCCsGAQUFBwMCMCwG
CWCGSAGG+EIBDQQfFh1PcGVuU1NMIEdlbmVyYXRlZCBDZXJ0aWZpY2F0ZTAdBgNV
HQ4EFgQUc8QEEIAs7BNAzcaXj5ewV8x++jUwHwYDVR0jBBgwFoAUJYiyGx8yjPSQ
l/MjuJcvswBS6aswMQYDVR0fBCowKDAmoCSgIoYgaHR0cDovLzE5Mi4xNjguMjEu
ODkvcm9vdGNybC5wZW0wDQYJKoZIhvcNAQELBQADggIBABx1tW3n2WIpw3eb12KH
lw4ujDiqI6KiOLEHdtU+dCIEloz8w81aQFp+Xjddi6nTo0H2+aAOHc17fX0/thZX
d136eDM2Ue9txh1GD4lbP1vm5XuOdRaTyMCake3CeMrn5g93j+P85ekxAVzhVIck
UnZnvR2GB2EGHu4Ic0TG20YTf/ycTfwZc6c4uIX4iQUlQ9OyQsMPq7PxjD3FsmAE
J+ophCwg9+E9wQ2HwekLEvBY7DUuYikjYNBusdYBtRGKAOJkxG5yuahYdR/cHAry
m+f0swasMsoKvGJw3PrhfNmb+TPu2rIhmSD2IZRbU+PGLHZbDIhPg81jTspwTKfc
UyYV00otXM7UE+kKFobwa7z/foGIgp40p3niu8APhm6DEBuuU2QJmKRdQc759Noh
Itf7Wfwv3kHTUmCmqGlR6zI1ixJsmzIyRKE2uFaVZIak+N+7OctHUfesVs5hHH76
EDGeOPjcLcRlYAbHgbQFw2K3itRHebc6mQtUp3iwoGtAEJbRtAht79lUXS6GB+SR
3TKu8d6nMH6aLy2TvB7pNm495SVp/AZSlQVuCISFm7rJHfWjwt7Nx7cHaKSrBYc4
QKmOtd8QWHjv7gmX4x9f+s5yDJo8Uw+NJeUsUsfzhDtoV+LOrqkpZnH1jHr6d47D
c1WZV790/d5fME2j3GgWG8Ke
-----END CERTIFICATE-----
