Certificate:
    Data:
        Version: 3 (0x2)
        Serial Number: 5 (0x5)
        Signature Algorithm: sha256WithRSAEncryption
        Issuer: C=BA, ST=RS, L=Banja Luka, O=ETF, OU=KIRZ, CN=Pavle Vignjevic/emailAddress=pavle.vignjevic@student.etf.unibl.org
        Validity
            Not Before: Aug 31 13:15:53 2019 GMT
            Not After : May 27 13:15:53 2022 GMT
        Subject: C=BA, ST=RS, L=Banja Luka, O=ETF, OU=KIRZ, CN=Korisnik4/emailAddress=korisnik4@kirz.com
        Subject Public Key Info:
            Public Key Algorithm: rsaEncryption
                RSA Public-Key: (4096 bit)
                Modulus:
                    00:c8:1d:db:48:61:96:60:45:f7:7f:04:9a:db:95:
                    00:f2:c1:fc:13:80:dd:66:1d:07:94:48:db:4f:b6:
                    e6:e0:86:3a:06:ad:4c:83:07:fc:1d:a3:2e:5a:86:
                    c8:c9:04:cb:ae:75:f6:d9:75:e7:f6:d7:7d:93:6a:
                    d2:82:b1:df:3e:21:50:5a:4b:5a:05:57:5e:6f:85:
                    7d:af:10:40:8c:fd:b8:97:05:8d:d8:c3:ab:7a:4a:
                    23:16:cb:dc:94:43:bb:64:05:e9:5f:d5:58:3f:07:
                    4c:c0:d7:a1:ea:ab:03:91:6d:47:04:18:25:f8:8d:
                    27:c7:dd:29:f1:d3:2f:ee:cc:b2:03:8c:0d:0c:05:
                    5e:de:de:07:66:c4:36:26:3b:3d:4e:e5:53:a0:11:
                    eb:72:d9:da:e2:b8:5d:28:b7:17:36:ad:78:9e:db:
                    a2:fd:54:cc:70:ca:41:90:d6:ce:7d:ad:46:a2:e6:
                    46:27:88:0b:76:8e:6f:b8:28:01:43:aa:eb:b7:b1:
                    94:b4:30:06:74:4d:44:7f:71:3c:31:9a:b2:40:e0:
                    11:71:fc:55:91:68:8f:b2:5e:ca:b5:64:d6:0e:f4:
                    11:89:2b:d0:04:4c:b5:8a:18:b5:1a:fc:8c:98:ad:
                    c9:9f:64:ee:0e:09:d0:fd:a3:65:2c:f5:0e:6b:36:
                    bd:46:3e:a2:3c:a7:37:fa:40:19:0f:8e:74:d7:12:
                    88:be:31:74:61:89:df:c8:4f:47:ed:e9:0f:c2:b5:
                    5e:e1:c9:b6:61:78:23:f9:1b:aa:43:bb:4e:30:ee:
                    f4:3d:0b:b3:22:73:46:19:73:68:22:85:da:20:c5:
                    e2:73:32:1f:f5:02:15:f9:06:14:72:ba:1c:41:f5:
                    72:a6:f9:95:e9:74:e1:e7:7d:06:18:b6:44:1e:34:
                    f5:e4:33:b7:6e:72:be:4c:01:b7:85:e8:2f:9d:74:
                    28:2e:03:c0:53:76:7b:41:46:6e:3a:b6:00:ca:39:
                    41:4e:62:a4:30:b3:a3:0f:17:2f:33:45:fa:17:6d:
                    2c:d9:0e:4e:de:7c:9f:d8:e5:da:42:f3:60:f8:e4:
                    2c:b6:5c:98:cd:12:40:6f:6d:74:c6:5a:d9:59:5d:
                    9f:48:79:0f:e1:91:aa:c4:c5:cd:7f:33:6f:f3:6a:
                    88:ee:2d:6d:2c:4c:13:b3:1f:54:f6:f1:94:f4:5d:
                    65:de:99:6f:cf:71:89:3e:a1:10:c5:eb:1f:75:d3:
                    20:45:a6:7b:a0:ab:77:11:a2:44:d9:17:77:11:fa:
                    bf:e7:ed:3b:c9:fc:ae:4d:bd:e3:c7:9e:9d:2a:96:
                    a7:53:86:f9:97:03:2c:39:39:13:81:1a:66:68:2c:
                    03:2d:4d
                Exponent: 65537 (0x10001)
        X509v3 extensions:
            X509v3 Basic Constraints: 
                CA:FALSE
            X509v3 Key Usage: 
                Digital Signature, Non Repudiation, Key Encipherment, Data Encipherment, Key Agreement
            X509v3 Extended Key Usage: 
                TLS Web Client Authentication
            Netscape Comment: 
                OpenSSL Generated Certificate
            X509v3 Subject Key Identifier: 
                52:8E:C7:18:06:2D:7C:AE:DA:C1:80:D4:8A:2B:C5:1E:9E:65:53:E8
            X509v3 Authority Key Identifier: 
                keyid:25:88:B2:1B:1F:32:8C:F4:90:97:F3:23:B8:97:2F:B3:00:52:E9:AB

            X509v3 CRL Distribution Points: 

                Full Name:
                  URI:http://192.168.21.89/rootcrl.pem

    Signature Algorithm: sha256WithRSAEncryption
         c3:5b:54:d0:54:64:e8:69:e4:1b:7a:6f:4b:7d:e5:6b:ca:c0:
         f6:4a:24:f1:e7:34:64:7f:bb:80:19:bd:d8:8b:e6:5a:48:ca:
         83:4a:7c:e8:c4:82:dd:28:e5:d0:f2:a6:fc:56:7d:7c:df:ed:
         6d:b8:e1:84:c6:22:ba:00:b0:b5:89:47:30:c6:74:35:7e:40:
         3c:fb:28:cd:a3:c5:40:e8:df:43:d4:d1:f8:22:4c:ba:9a:ac:
         d3:d9:da:f1:3f:92:c1:b1:3b:13:d7:59:14:eb:94:d0:35:e3:
         23:5d:0d:f8:d8:74:9a:d3:4e:d0:9e:27:87:11:d7:35:6a:a0:
         e6:21:45:e7:b8:4f:e5:cf:16:d9:a1:70:cd:d6:13:11:a2:31:
         ab:32:2a:f6:eb:56:3b:4c:29:5c:e1:f1:66:20:f3:21:75:8a:
         97:cb:74:33:4f:8c:03:0d:3e:3a:64:f2:39:65:3e:c4:36:03:
         08:6c:22:b8:7b:84:ea:db:0a:92:6b:9d:ce:cc:f6:77:35:c5:
         cc:16:9d:95:c0:69:47:58:81:f8:8a:4b:9d:c8:64:26:64:e8:
         3a:0d:71:a4:b2:61:09:98:ca:ed:a7:24:b7:c9:8c:63:5f:5c:
         ff:a8:fa:66:23:03:97:7d:06:4b:cc:b2:11:b1:e2:e2:df:36:
         73:48:ce:01:20:88:de:71:23:58:aa:ff:de:46:36:14:51:28:
         6c:fa:ef:28:5b:1f:38:d9:39:4f:45:73:75:fd:23:3e:80:5e:
         ae:a7:bf:53:c1:ed:03:50:54:82:f4:b0:3e:1d:0f:83:12:1b:
         29:6a:bc:17:1b:91:71:08:90:2f:6e:c4:a3:49:0c:db:98:b4:
         4f:3c:d9:e8:41:f8:ee:c4:97:04:2d:ca:3f:6b:42:6e:af:44:
         48:a8:58:1f:c2:74:2d:5f:e7:14:61:ca:f2:21:a2:e5:61:a5:
         94:38:3f:3f:27:da:37:28:06:8f:18:6a:8f:f3:f5:b2:90:82:
         ea:a7:81:21:ce:8a:89:4f:87:23:28:ce:a5:ff:f2:2a:1e:88:
         b0:9e:1b:64:12:5f:f9:11:36:dc:9e:36:a2:99:9f:2e:66:48:
         8c:81:e5:7f:5e:b5:df:4e:04:5d:8e:3e:13:ec:77:d8:0f:0b:
         6f:1c:2c:64:4a:39:22:a2:b7:a1:44:9b:b2:fa:cd:e7:6e:12:
         d7:a5:69:5e:be:c9:49:02:bc:ab:ad:96:93:58:2d:2d:70:ad:
         b0:4e:36:11:56:ee:7e:ed:4f:58:45:eb:c1:aa:a0:df:f4:c0:
         83:04:07:d3:a2:a6:cb:33:3d:a7:19:4a:bb:68:cf:37:0d:a9:
         6e:17:9f:42:5e:8d:ec:83
-----BEGIN CERTIFICATE-----
MIIGbjCCBFagAwIBAgIBBTANBgkqhkiG9w0BAQsFADCBnDELMAkGA1UEBhMCQkEx
CzAJBgNVBAgTAlJTMRMwEQYDVQQHEwpCYW5qYSBMdWthMQwwCgYDVQQKEwNFVEYx
DTALBgNVBAsTBEtJUloxGDAWBgNVBAMTD1BhdmxlIFZpZ25qZXZpYzE0MDIGCSqG
SIb3DQEJARYlcGF2bGUudmlnbmpldmljQHN0dWRlbnQuZXRmLnVuaWJsLm9yZzAe
Fw0xOTA4MzExMzE1NTNaFw0yMjA1MjcxMzE1NTNaMIGDMQswCQYDVQQGEwJCQTEL
MAkGA1UECBMCUlMxEzARBgNVBAcTCkJhbmphIEx1a2ExDDAKBgNVBAoTA0VURjEN
MAsGA1UECxMES0lSWjESMBAGA1UEAxMJS29yaXNuaWs0MSEwHwYJKoZIhvcNAQkB
FhJrb3Jpc25pazRAa2lyei5jb20wggIiMA0GCSqGSIb3DQEBAQUAA4ICDwAwggIK
AoICAQDIHdtIYZZgRfd/BJrblQDywfwTgN1mHQeUSNtPtubghjoGrUyDB/wdoy5a
hsjJBMuudfbZdef2132TatKCsd8+IVBaS1oFV15vhX2vEECM/biXBY3Yw6t6SiMW
y9yUQ7tkBelf1Vg/B0zA16HqqwORbUcEGCX4jSfH3Snx0y/uzLIDjA0MBV7e3gdm
xDYmOz1O5VOgEety2driuF0otxc2rXie26L9VMxwykGQ1s59rUai5kYniAt2jm+4
KAFDquu3sZS0MAZ0TUR/cTwxmrJA4BFx/FWRaI+yXsq1ZNYO9BGJK9AETLWKGLUa
/IyYrcmfZO4OCdD9o2Us9Q5rNr1GPqI8pzf6QBkPjnTXEoi+MXRhid/IT0ft6Q/C
tV7hybZheCP5G6pDu04w7vQ9C7Mic0YZc2gihdogxeJzMh/1AhX5BhRyuhxB9XKm
+ZXpdOHnfQYYtkQeNPXkM7ducr5MAbeF6C+ddCguA8BTdntBRm46tgDKOUFOYqQw
s6MPFy8zRfoXbSzZDk7efJ/Y5dpC82D45Cy2XJjNEkBvbXTGWtlZXZ9IeQ/hkarE
xc1/M2/zaojuLW0sTBOzH1T28ZT0XWXemW/PcYk+oRDF6x910yBFpnugq3cRokTZ
F3cR+r/n7TvJ/K5NvePHnp0qlqdThvmXAyw5OROBGmZoLAMtTQIDAQABo4HRMIHO
MAkGA1UdEwQCMAAwCwYDVR0PBAQDAgP4MBMGA1UdJQQMMAoGCCsGAQUFBwMCMCwG
CWCGSAGG+EIBDQQfFh1PcGVuU1NMIEdlbmVyYXRlZCBDZXJ0aWZpY2F0ZTAdBgNV
HQ4EFgQUUo7HGAYtfK7awYDUiivFHp5lU+gwHwYDVR0jBBgwFoAUJYiyGx8yjPSQ
l/MjuJcvswBS6aswMQYDVR0fBCowKDAmoCSgIoYgaHR0cDovLzE5Mi4xNjguMjEu
ODkvcm9vdGNybC5wZW0wDQYJKoZIhvcNAQELBQADggIBAMNbVNBUZOhp5Bt6b0t9
5WvKwPZKJPHnNGR/u4AZvdiL5lpIyoNKfOjEgt0o5dDypvxWfXzf7W244YTGIroA
sLWJRzDGdDV+QDz7KM2jxUDo30PU0fgiTLqarNPZ2vE/ksGxOxPXWRTrlNA14yNd
DfjYdJrTTtCeJ4cR1zVqoOYhRee4T+XPFtmhcM3WExGiMasyKvbrVjtMKVzh8WYg
8yF1ipfLdDNPjAMNPjpk8jllPsQ2AwhsIrh7hOrbCpJrnc7M9nc1xcwWnZXAaUdY
gfiKS53IZCZk6DoNcaSyYQmYyu2nJLfJjGNfXP+o+mYjA5d9BkvMshGx4uLfNnNI
zgEgiN5xI1iq/95GNhRRKGz67yhbHzjZOU9Fc3X9Iz6AXq6nv1PB7QNQVIL0sD4d
D4MSGylqvBcbkXEIkC9uxKNJDNuYtE882ehB+O7ElwQtyj9rQm6vREioWB/CdC1f
5xRhyvIhouVhpZQ4Pz8n2jcoBo8Yao/z9bKQguqngSHOiolPhyMozqX/8ioeiLCe
G2QSX/kRNtyeNqKZny5mSIyB5X9etd9OBF2OPhPsd9gPC28cLGRKOSKit6FEm7L6
zeduEtelaV6+yUkCvKutlpNYLS1wrbBONhFW7n7tT1hF68GqoN/0wIMEB9Oipssz
PacZSrtozzcNqW4Xn0JejeyD
-----END CERTIFICATE-----
