Certificate:
    Data:
        Version: 3 (0x2)
        Serial Number: 2 (0x2)
        Signature Algorithm: sha256WithRSAEncryption
        Issuer: C=BA, ST=RS, L=Banja Luka, O=ETF, OU=KIRZ, CN=Pavle Vignjevic/emailAddress=pavle.vignjevic@student.etf.unibl.org
        Validity
            Not Before: Aug 31 13:15:47 2019 GMT
            Not After : May 27 13:15:47 2022 GMT
        Subject: C=BA, ST=RS, L=Banja Luka, O=ETF, OU=KIRZ, CN=Korisnik1/emailAddress=korisnik1@kirz.com
        Subject Public Key Info:
            Public Key Algorithm: rsaEncryption
                RSA Public-Key: (4096 bit)
                Modulus:
                    00:df:91:f3:68:98:bb:cb:c2:f0:d5:70:de:3a:d3:
                    34:06:9b:73:c2:84:4c:94:1f:84:6a:bd:3c:86:4f:
                    43:f0:ef:1a:fe:3a:31:ec:ee:fe:37:91:29:c1:1d:
                    d7:b8:de:9c:63:7f:b0:b7:98:80:cc:9f:2d:b6:4c:
                    38:05:86:f1:ff:7c:d1:b7:23:6a:8e:3f:f9:18:53:
                    c7:8e:fa:27:b9:4c:a3:3a:d7:c7:16:43:e5:5c:9a:
                    f5:b5:e2:1c:a6:7e:b6:c7:5a:c8:d4:c9:20:05:fa:
                    2d:9d:08:40:75:21:aa:06:22:79:51:52:29:f4:e1:
                    78:05:7d:88:96:20:dc:62:af:88:c6:77:ec:c7:44:
                    a6:92:3f:5e:57:63:27:e8:ac:a5:e8:80:0a:48:30:
                    d2:16:55:98:9c:77:90:1a:2f:70:4d:a2:19:c7:f4:
                    76:f1:60:f8:1d:b2:27:86:6b:97:ec:cd:33:93:d4:
                    9b:7e:eb:6a:7f:02:a5:63:74:23:a2:d3:44:01:24:
                    cd:77:db:7c:fc:79:cb:4a:7a:59:9e:20:0f:25:03:
                    fe:b3:00:0b:75:98:06:c1:39:15:57:a9:50:0d:ed:
                    7d:39:28:05:26:bd:7b:b5:1e:ee:a5:07:8c:84:b1:
                    e8:b6:a4:ba:71:7a:52:08:9a:5e:5e:52:8c:f9:72:
                    3c:a5:4f:2f:3b:d0:c0:9e:ee:4b:c1:5d:43:91:43:
                    58:8a:56:08:89:22:5f:0a:ef:54:02:b2:8b:a4:8e:
                    53:40:8b:d9:8f:ba:db:56:c0:7d:d0:94:0e:bf:d6:
                    7d:1a:53:a2:5c:75:e6:c4:99:bf:c4:c4:1c:f0:f9:
                    9b:03:67:90:5a:76:1c:0b:93:15:cf:30:25:67:59:
                    11:99:76:b8:0b:09:bf:48:4e:63:1e:9a:cf:09:f4:
                    58:09:85:c3:9d:69:43:57:62:67:49:5e:7b:1e:a6:
                    8f:b9:41:84:04:88:cf:b7:92:ef:78:7e:55:4a:c4:
                    d1:32:5f:02:b8:c9:09:d3:37:19:a3:03:67:47:3a:
                    26:46:a4:e1:f8:af:d0:50:64:7a:a8:9b:0b:dd:80:
                    8a:a3:e3:b2:a1:8e:bf:b1:3e:f8:89:4c:91:df:e5:
                    2c:ac:42:65:e5:16:68:60:1b:df:37:78:11:99:d5:
                    6e:3c:79:4e:03:e6:c2:50:a5:d4:12:b2:bd:06:8a:
                    b5:c9:8d:cd:0b:bc:31:8b:b4:5e:8e:e5:9b:c4:64:
                    15:48:9b:26:a9:b5:85:54:fd:81:64:76:11:a0:a7:
                    ca:67:14:a2:1e:51:cd:c9:7c:42:26:9c:8b:d9:2d:
                    e6:eb:c3:82:64:58:27:73:81:b9:9a:90:fa:7e:38:
                    68:3f:cf
                Exponent: 65537 (0x10001)
        X509v3 extensions:
            X509v3 Basic Constraints: 
                CA:FALSE
            X509v3 Key Usage: 
                Digital Signature, Non Repudiation, Key Encipherment, Data Encipherment, Key Agreement
            X509v3 Extended Key Usage: 
                TLS Web Client Authentication
            Netscape Comment: 
                OpenSSL Generated Certificate
            X509v3 Subject Key Identifier: 
                DF:90:FF:92:D4:AE:DF:21:A3:30:3C:FE:3F:B9:45:8B:DA:0D:56:94
            X509v3 Authority Key Identifier: 
                keyid:25:88:B2:1B:1F:32:8C:F4:90:97:F3:23:B8:97:2F:B3:00:52:E9:AB

            X509v3 CRL Distribution Points: 

                Full Name:
                  URI:http://192.168.21.89/rootcrl.pem

    Signature Algorithm: sha256WithRSAEncryption
         63:83:2b:a7:18:71:21:48:58:c7:f4:6c:7b:38:7e:6a:77:c3:
         cd:dd:82:37:05:f5:c4:f1:65:64:7b:14:61:ea:cf:5b:56:95:
         3c:46:03:15:1c:0c:7f:ef:ba:b1:1d:dd:eb:fc:35:12:ac:62:
         61:d6:a5:24:bb:c8:27:c6:a8:8c:37:f7:d2:43:69:79:ed:fa:
         21:df:81:65:09:b6:bd:03:1c:3f:ed:d8:37:3c:fe:bd:42:78:
         6d:e9:5f:25:e0:a9:af:02:5c:bf:f5:90:fa:a1:d2:5f:ab:88:
         08:38:84:3b:3a:d7:21:94:1f:42:d6:53:d6:3f:a5:ea:8e:ee:
         f5:8d:2d:3a:c2:f7:49:8a:4b:20:8a:15:52:bb:77:0f:14:74:
         a6:68:9e:28:10:dc:28:a5:bd:6c:04:77:52:b4:9e:97:7f:0b:
         f9:39:5a:7f:24:8c:67:ff:3d:db:e9:b4:14:3d:c3:1e:e4:36:
         cc:fc:f9:f4:ca:12:c7:94:67:b8:20:58:91:fe:c6:51:e6:d9:
         bb:1a:29:ba:73:ce:f6:7d:24:6c:ed:03:ee:86:b1:06:65:96:
         e6:35:79:0a:db:3e:0d:87:6b:63:8f:59:5e:02:ae:03:fd:31:
         86:a2:d1:db:16:50:67:44:1e:6f:07:d3:a9:43:b5:07:d0:9f:
         35:23:92:5b:6a:b6:16:1d:72:b7:18:4c:e8:36:e2:f3:34:8d:
         b7:fa:c4:8b:13:ea:d4:85:b6:68:c9:0d:41:09:79:58:32:14:
         c2:43:6c:ab:cc:fd:9f:c2:97:a5:8a:d3:5e:ec:d6:67:92:a8:
         f7:c7:64:b0:83:c4:1b:2f:6f:13:c1:f6:b3:3d:eb:34:03:ff:
         bd:49:33:6a:23:5d:4b:24:66:3e:ee:37:78:6c:6e:5a:26:74:
         5d:7e:0e:01:47:b3:1a:b4:a7:5b:b2:4f:21:fc:dd:ed:da:2e:
         41:76:c6:ec:9b:ba:d7:c4:cd:dc:bc:ef:6b:c6:f0:63:bb:5d:
         c1:a0:8e:c9:22:cf:65:0b:76:3d:af:1b:97:84:5f:9b:1d:ab:
         49:83:37:c4:cf:fb:e7:30:df:a1:41:bc:df:97:8d:19:3e:b3:
         88:b9:f7:fb:37:4e:71:60:f1:4b:07:44:b8:ff:9c:eb:54:9d:
         15:cb:01:53:9d:8a:0c:b1:54:bd:34:de:1d:d0:d7:d5:18:06:
         7b:f0:17:5d:cf:d8:fa:d5:2c:68:0c:5b:d1:ce:f9:cb:55:d3:
         0b:6c:3c:fe:28:65:b2:01:f6:f4:f6:0e:c4:2b:6e:e8:fe:0b:
         36:0b:69:57:31:94:2c:0b:f5:f2:0e:9d:10:f2:c8:c5:57:49:
         02:75:ea:0b:ef:a5:6a:cd
-----BEGIN CERTIFICATE-----
MIIGbjCCBFagAwIBAgIBAjANBgkqhkiG9w0BAQsFADCBnDELMAkGA1UEBhMCQkEx
CzAJBgNVBAgTAlJTMRMwEQYDVQQHEwpCYW5qYSBMdWthMQwwCgYDVQQKEwNFVEYx
DTALBgNVBAsTBEtJUloxGDAWBgNVBAMTD1BhdmxlIFZpZ25qZXZpYzE0MDIGCSqG
SIb3DQEJARYlcGF2bGUudmlnbmpldmljQHN0dWRlbnQuZXRmLnVuaWJsLm9yZzAe
Fw0xOTA4MzExMzE1NDdaFw0yMjA1MjcxMzE1NDdaMIGDMQswCQYDVQQGEwJCQTEL
MAkGA1UECBMCUlMxEzARBgNVBAcTCkJhbmphIEx1a2ExDDAKBgNVBAoTA0VURjEN
MAsGA1UECxMES0lSWjESMBAGA1UEAxMJS29yaXNuaWsxMSEwHwYJKoZIhvcNAQkB
FhJrb3Jpc25pazFAa2lyei5jb20wggIiMA0GCSqGSIb3DQEBAQUAA4ICDwAwggIK
AoICAQDfkfNomLvLwvDVcN460zQGm3PChEyUH4RqvTyGT0Pw7xr+OjHs7v43kSnB
Hde43pxjf7C3mIDMny22TDgFhvH/fNG3I2qOP/kYU8eO+ie5TKM618cWQ+VcmvW1
4hymfrbHWsjUySAF+i2dCEB1IaoGInlRUin04XgFfYiWINxir4jGd+zHRKaSP15X
YyforKXogApIMNIWVZicd5AaL3BNohnH9HbxYPgdsieGa5fszTOT1Jt+62p/AqVj
dCOi00QBJM1323z8ectKelmeIA8lA/6zAAt1mAbBORVXqVAN7X05KAUmvXu1Hu6l
B4yEsei2pLpxelIIml5eUoz5cjylTy870MCe7kvBXUORQ1iKVgiJIl8K71QCsouk
jlNAi9mPuttWwH3QlA6/1n0aU6JcdebEmb/ExBzw+ZsDZ5BadhwLkxXPMCVnWRGZ
drgLCb9ITmMems8J9FgJhcOdaUNXYmdJXnsepo+5QYQEiM+3ku94flVKxNEyXwK4
yQnTNxmjA2dHOiZGpOH4r9BQZHqomwvdgIqj47Khjr+xPviJTJHf5SysQmXlFmhg
G983eBGZ1W48eU4D5sJQpdQSsr0GirXJjc0LvDGLtF6O5ZvEZBVImyaptYVU/YFk
dhGgp8pnFKIeUc3JfEImnIvZLebrw4JkWCdzgbmakPp+OGg/zwIDAQABo4HRMIHO
MAkGA1UdEwQCMAAwCwYDVR0PBAQDAgP4MBMGA1UdJQQMMAoGCCsGAQUFBwMCMCwG
CWCGSAGG+EIBDQQfFh1PcGVuU1NMIEdlbmVyYXRlZCBDZXJ0aWZpY2F0ZTAdBgNV
HQ4EFgQU35D/ktSu3yGjMDz+P7lFi9oNVpQwHwYDVR0jBBgwFoAUJYiyGx8yjPSQ
l/MjuJcvswBS6aswMQYDVR0fBCowKDAmoCSgIoYgaHR0cDovLzE5Mi4xNjguMjEu
ODkvcm9vdGNybC5wZW0wDQYJKoZIhvcNAQELBQADggIBAGODK6cYcSFIWMf0bHs4
fmp3w83dgjcF9cTxZWR7FGHqz1tWlTxGAxUcDH/vurEd3ev8NRKsYmHWpSS7yCfG
qIw399JDaXnt+iHfgWUJtr0DHD/t2Dc8/r1CeG3pXyXgqa8CXL/1kPqh0l+riAg4
hDs61yGUH0LWU9Y/peqO7vWNLTrC90mKSyCKFVK7dw8UdKZonigQ3CilvWwEd1K0
npd/C/k5Wn8kjGf/PdvptBQ9wx7kNsz8+fTKEseUZ7ggWJH+xlHm2bsaKbpzzvZ9
JGztA+6GsQZlluY1eQrbPg2Ha2OPWV4CrgP9MYai0dsWUGdEHm8H06lDtQfQnzUj
kltqthYdcrcYTOg24vM0jbf6xIsT6tSFtmjJDUEJeVgyFMJDbKvM/Z/Cl6WK017s
1meSqPfHZLCDxBsvbxPB9rM96zQD/71JM2ojXUskZj7uN3hsblomdF1+DgFHsxq0
p1uyTyH83e3aLkF2xuybutfEzdy872vG8GO7XcGgjskiz2ULdj2vG5eEX5sdq0mD
N8TP++cw36FBvN+XjRk+s4i59/s3TnFg8UsHRLj/nOtUnRXLAVOdigyxVL003h3Q
19UYBnvwF13P2PrVLGgMW9HO+ctV0wtsPP4oZbIB9vT2DsQrbuj+CzYLaVcxlCwL
9fIOnRDyyMVXSQJ16gvvpWrN
-----END CERTIFICATE-----
